target datalayout = "e-m:e-p270:32:32-p271:32:32-p272:64:64-i64:64-i128:128-f80:128-n8:16:32:64-S128"
target triple = "x86_64-pc-linux-gnu"

%struct.X509_algor_st = type { ptr, ptr }
%struct.evp_pkey_asn1_method_st = type { i32, i32, i64, ptr, ptr, ptr, ptr, ptr, ptr, ptr, ptr, ptr, ptr, ptr, ptr, ptr, ptr, ptr, ptr, ptr, ptr, ptr, ptr, ptr, ptr, ptr, ptr, ptr, ptr, ptr, ptr, ptr, ptr, ptr, ptr, ptr, ptr, ptr, ptr, ptr, ptr }

@.str.4 = private unnamed_addr constant [1 x i8] zeroinitializer, align 1
@.str.7 = private unnamed_addr constant [2 x i8] c"\0A\00", align 1
@.str.26 = private unnamed_addr constant [25 x i8] c"%*sSignature Algorithm: \00", align 1
@.str.27 = private unnamed_addr constant [21 x i8] c"\0A%*sSignature Value:\00", align 1

; Function Attrs: nounwind uwtable
define i32 @X509_signature_print(ptr noundef %0, ptr noundef %1, ptr noundef %2) #0 {
  %4 = alloca i32, align 4
  %5 = alloca ptr, align 8
  %6 = alloca ptr, align 8
  %7 = alloca ptr, align 8
  %8 = alloca i32, align 4
  %9 = alloca i32, align 4
  %10 = alloca i32, align 4
  %11 = alloca i32, align 4
  %12 = alloca i32, align 4
  %13 = alloca ptr, align 8
  store ptr %0, ptr %5, align 8, !tbaa !15
  store ptr %1, ptr %6, align 8, !tbaa !24
  store ptr %2, ptr %7, align 8, !tbaa !22
  call void @llvm.lifetime.start.p0(i64 4, ptr %8) #4
  call void @llvm.lifetime.start.p0(i64 4, ptr %9) #4
  store i32 4, ptr %9, align 4, !tbaa !17
  %14 = load ptr, ptr %5, align 8, !tbaa !15
  %15 = load i32, ptr %9, align 4, !tbaa !17
  %16 = call i32 (ptr, ptr, ...) @BIO_printf(ptr noundef %14, ptr noundef @.str.26, i32 noundef %15, ptr noundef @.str.4)
  %17 = icmp sle i32 %16, 0
  br i1 %17, label %18, label %19

18:                                               ; preds = %3
  store i32 0, ptr %4, align 4
  store i32 1, ptr %10, align 4
  br label %87

19:                                               ; preds = %3
  %20 = load ptr, ptr %5, align 8, !tbaa !15
  %21 = load ptr, ptr %6, align 8, !tbaa !24
  %22 = getelementptr inbounds nuw %struct.X509_algor_st, ptr %21, i32 0, i32 0
  %23 = load ptr, ptr %22, align 8, !tbaa !38
  %24 = call i32 @i2a_ASN1_OBJECT(ptr noundef %20, ptr noundef %23)
  %25 = icmp sle i32 %24, 0
  br i1 %25, label %26, label %27

26:                                               ; preds = %19
  store i32 0, ptr %4, align 4
  store i32 1, ptr %10, align 4
  br label %87

27:                                               ; preds = %19
  %28 = load ptr, ptr %7, align 8, !tbaa !22
  %29 = icmp ne ptr %28, null
  br i1 %29, label %30, label %36

30:                                               ; preds = %27
  %31 = load ptr, ptr %5, align 8, !tbaa !15
  %32 = load i32, ptr %9, align 4, !tbaa !17
  %33 = call i32 (ptr, ptr, ...) @BIO_printf(ptr noundef %31, ptr noundef @.str.27, i32 noundef %32, ptr noundef @.str.4)
  %34 = icmp sle i32 %33, 0
  br i1 %34, label %35, label %36

35:                                               ; preds = %30
  store i32 0, ptr %4, align 4
  store i32 1, ptr %10, align 4
  br label %87

36:                                               ; preds = %30, %27
  %37 = load ptr, ptr %6, align 8, !tbaa !24
  %38 = getelementptr inbounds nuw %struct.X509_algor_st, ptr %37, i32 0, i32 0
  %39 = load ptr, ptr %38, align 8, !tbaa !38
  %40 = call i32 @OBJ_obj2nid(ptr noundef %39)
  store i32 %40, ptr %8, align 4, !tbaa !17
  %41 = load i32, ptr %8, align 4, !tbaa !17
  %42 = icmp ne i32 %41, 0
  br i1 %42, label %43, label %72

43:                                               ; preds = %36
  call void @llvm.lifetime.start.p0(i64 4, ptr %11) #4
  call void @llvm.lifetime.start.p0(i64 4, ptr %12) #4
  call void @llvm.lifetime.start.p0(i64 8, ptr %13) #4
  %44 = load i32, ptr %8, align 4, !tbaa !17
  %45 = call i32 @OBJ_find_sigid_algs(i32 noundef %44, ptr noundef %12, ptr noundef %11)
  %46 = icmp ne i32 %45, 0
  br i1 %46, label %47, label %68

47:                                               ; preds = %43
  %48 = load i32, ptr %11, align 4, !tbaa !17
  %49 = call ptr @EVP_PKEY_asn1_find(ptr noundef null, i32 noundef %48)
  store ptr %49, ptr %13, align 8, !tbaa !41
  %50 = load ptr, ptr %13, align 8, !tbaa !41
  %51 = icmp ne ptr %50, null
  br i1 %51, label %52, label %67

52:                                               ; preds = %47
  %53 = load ptr, ptr %13, align 8, !tbaa !41
  %54 = getelementptr inbounds nuw %struct.evp_pkey_asn1_method_st, ptr %53, i32 0, i32 21
  %55 = load ptr, ptr %54, align 8, !tbaa !43
  %56 = icmp ne ptr %55, null
  br i1 %56, label %57, label %67

57:                                               ; preds = %52
  %58 = load ptr, ptr %13, align 8, !tbaa !41
  %59 = getelementptr inbounds nuw %struct.evp_pkey_asn1_method_st, ptr %58, i32 0, i32 21
  %60 = load ptr, ptr %59, align 8, !tbaa !43
  %61 = load ptr, ptr %5, align 8, !tbaa !15
  %62 = load ptr, ptr %6, align 8, !tbaa !24
  %63 = load ptr, ptr %7, align 8, !tbaa !22
  %64 = load i32, ptr %9, align 4, !tbaa !17
  %65 = add nsw i32 %64, 4
  %66 = call i32 %60(ptr noundef %61, ptr noundef %62, ptr noundef %63, i32 noundef %65, ptr noundef null)
  store i32 %66, ptr %4, align 4
  store i32 1, ptr %10, align 4
  br label %69

67:                                               ; preds = %52, %47
  br label %68

68:                                               ; preds = %67, %43
  store i32 0, ptr %10, align 4
  br label %69

69:                                               ; preds = %68, %57
  call void @llvm.lifetime.end.p0(i64 8, ptr %13) #4
  call void @llvm.lifetime.end.p0(i64 4, ptr %12) #4
  call void @llvm.lifetime.end.p0(i64 4, ptr %11) #4
  %70 = load i32, ptr %10, align 4
  switch i32 %70, label %87 [
    i32 0, label %71
  ]

71:                                               ; preds = %69
  br label %72

72:                                               ; preds = %71, %36
  %73 = load ptr, ptr %5, align 8, !tbaa !15
  %74 = call i32 @BIO_write(ptr noundef %73, ptr noundef @.str.7, i32 noundef 1)
  %75 = icmp ne i32 %74, 1
  br i1 %75, label %76, label %77

76:                                               ; preds = %72
  store i32 0, ptr %4, align 4
  store i32 1, ptr %10, align 4
  br label %87

77:                                               ; preds = %72
  %78 = load ptr, ptr %7, align 8, !tbaa !22
  %79 = icmp ne ptr %78, null
  br i1 %79, label %80, label %86

80:                                               ; preds = %77
  %81 = load ptr, ptr %5, align 8, !tbaa !15
  %82 = load ptr, ptr %7, align 8, !tbaa !22
  %83 = load i32, ptr %9, align 4, !tbaa !17
  %84 = add nsw i32 %83, 4
  %85 = call i32 @X509_signature_dump(ptr noundef %81, ptr noundef %82, i32 noundef %84)
  store i32 %85, ptr %4, align 4
  store i32 1, ptr %10, align 4
  br label %87

86:                                               ; preds = %77
  store i32 1, ptr %4, align 4
  store i32 1, ptr %10, align 4
  br label %87

87:                                               ; preds = %86, %80, %76, %69, %35, %26, %18
  call void @llvm.lifetime.end.p0(i64 4, ptr %9) #4
  call void @llvm.lifetime.end.p0(i64 4, ptr %8) #4
  %88 = load i32, ptr %4, align 4
  ret i32 %88
}