; Function Attrs: nounwind uwtable
define i32 @X509_signature_print(ptr noundef %0, ptr noundef %1, ptr noundef %2) local_unnamed_addr #0 {
  %4 = alloca i32, align 4
  %5 = alloca i32, align 4
  %6 = tail call i32 (ptr, ptr, ...) @BIO_printf(ptr noundef %0, ptr noundef nonnull @.str.26, i32 noundef 4, ptr noundef nonnull @.str.4) #4
  %7 = icmp slt i32 %6, 1
  br i1 %7, label %33, label %8

8:                                                ; preds = %3
  %9 = load ptr, ptr %1, align 8, !tbaa !22
  %10 = tail call i32 @i2a_ASN1_OBJECT(ptr noundef %0, ptr noundef %9) #4
  %11 = icmp slt i32 %10, 1
  br i1 %11, label %33, label %12

12:                                               ; preds = %8
  %.not = icmp eq ptr %2, null
  br i1 %.not, label %16, label %13

13:                                               ; preds = %12
  %14 = tail call i32 (ptr, ptr, ...) @BIO_printf(ptr noundef %0, ptr noundef nonnull @.str.27, i32 noundef 4, ptr noundef nonnull @.str.4) #4
  %15 = icmp slt i32 %14, 1
  br i1 %15, label %33, label %16

16:                                               ; preds = %13, %12
  %17 = load ptr, ptr %1, align 8, !tbaa !22
  %18 = tail call i32 @OBJ_obj2nid(ptr noundef %17) #4
  %.not28 = icmp eq i32 %18, 0
  br i1 %.not28, label %29, label %19

19:                                               ; preds = %16
  call void @llvm.lifetime.start.p0(i64 4, ptr nonnull %4) #4
  call void @llvm.lifetime.start.p0(i64 4, ptr nonnull %5) #4
  %20 = call i32 @OBJ_find_sigid_algs(i32 noundef %18, ptr noundef nonnull %5, ptr noundef nonnull %4) #4
  %.not29 = icmp eq i32 %20, 0
  br i1 %.not29, label %.thread, label %21

21:                                               ; preds = %19
  %22 = load i32, ptr %4, align 4, !tbaa !25
  %23 = call ptr @EVP_PKEY_asn1_find(ptr noundef null, i32 noundef %22) #4
  %.not30 = icmp eq ptr %23, null
  br i1 %.not30, label %.thread, label %24

24:                                               ; preds = %21
  %25 = getelementptr inbounds nuw i8, ptr %23, i64 160
  %26 = load ptr, ptr %25, align 8, !tbaa !26
  %.not31 = icmp eq ptr %26, null
  br i1 %.not31, label %.thread, label %27

.thread:                                          ; preds = %21, %24, %19
  call void @llvm.lifetime.end.p0(i64 4, ptr nonnull %5) #4
  call void @llvm.lifetime.end.p0(i64 4, ptr nonnull %4) #4
  br label %29

27:                                               ; preds = %24
  %28 = call i32 %26(ptr noundef %0, ptr noundef nonnull %1, ptr noundef %2, i32 noundef 8, ptr noundef null) #4
  call void @llvm.lifetime.end.p0(i64 4, ptr nonnull %5) #4
  call void @llvm.lifetime.end.p0(i64 4, ptr nonnull %4) #4
  br label %33

29:                                               ; preds = %.thread, %16
  %30 = call i32 @BIO_write(ptr noundef %0, ptr noundef nonnull @.str.7, i32 noundef 1) #4
  %.not32 = icmp ne i32 %30, 1
  %brmerge = or i1 %.not, %.not32
  %not..not32 = xor i1 %.not32, true
  %.mux = zext i1 %not..not32 to i32
  br i1 %brmerge, label %33, label %31

31:                                               ; preds = %29
  %32 = call i32 @X509_signature_dump(ptr noundef %0, ptr noundef nonnull %2, i32 noundef 8)
  br label %33

33:                                               ; preds = %27, %29, %13, %8, %3, %31
  %.0 = phi i32 [ %32, %31 ], [ %28, %27 ], [ 0, %3 ], [ 0, %8 ], [ 0, %13 ], [ %.mux, %29 ]
  ret i32 %.0
}